target datalayout = "e-m:e-p270:32:32-p271:32:32-p272:64:64-i64:64-i128:128-f80:128-n8:16:32:64-S128"
target triple = "x86_64-pc-linux-gnu"

%struct.tcpcl_dissect_ctx_t = type { ptr, ptr, i8, ptr, ptr, ptr }
%struct.tcpcl_conversation_t = type { ptr, ptr, ptr, i8, i8, ptr, i8, i16 }

@tcpcl_handle = internal global ptr null, align 8
@tls_handle = internal global ptr null, align 8

; Function Attrs: null_pointer_is_valid sspstrong uwtable
define internal ptr @tcpcl_frame_loc_clone(ptr noundef %0, ptr noundef %1) #0 {
  %3 = alloca ptr, align 8
  %4 = alloca ptr, align 8
  %5 = alloca ptr, align 8
  store ptr %0, ptr %3, align 8
  store ptr %1, ptr %4, align 8
  call void @llvm.lifetime.start.p0(i64 8, ptr %5) #11
  %6 = load ptr, ptr %3, align 8
  %7 = call noalias ptr @wmem_alloc(ptr noundef %6, i64 noundef 12) #12
  store ptr %7, ptr %5, align 8
  %8 = load ptr, ptr %5, align 8
  %9 = load ptr, ptr %4, align 8
  call void @llvm.memcpy.p0.p0.i64(ptr align 4 %8, ptr align 4 %9, i64 12, i1 false)
  %10 = load ptr, ptr %5, align 8
  call void @llvm.lifetime.end.p0(i64 8, ptr %5) #11
  ret ptr %10
}

; Function Attrs: null_pointer_is_valid sspstrong uwtable
define internal i32 @chdr_missing_tls(ptr noundef %0, ptr noundef %1, i32 noundef %2, ptr noundef %3) #0 {
  %5 = alloca i32, align 4
  %6 = alloca ptr, align 8
  %7 = alloca ptr, align 8
  %8 = alloca i32, align 4
  %9 = alloca ptr, align 8
  %10 = alloca i8, align 1
  %11 = alloca i16, align 2
  %12 = alloca i16, align 2
  %13 = alloca i32, align 4
  store ptr %0, ptr %6, align 8
  store ptr %1, ptr %7, align 8
  store i32 %2, ptr %8, align 4
  store ptr %3, ptr %9, align 8
  %14 = load ptr, ptr %9, align 8
  %15 = getelementptr inbounds nuw %struct.tcpcl_dissect_ctx_t, ptr %14, i32 0, i32 0
  %16 = load ptr, ptr %15, align 8
  %17 = getelementptr inbounds nuw %struct.tcpcl_conversation_t, ptr %16, i32 0, i32 5
  %18 = load ptr, ptr %17, align 8
  %19 = icmp ne ptr %18, null
  br i1 %19, label %20, label %21

20:                                               ; preds = %4
  store i32 0, ptr %5, align 4
  br label %79

21:                                               ; preds = %4
  %22 = load ptr, ptr %7, align 8
  %23 = call i32 @tvb_captured_length(ptr noundef %22)
  %24 = icmp ult i32 %23, 5
  br i1 %24, label %25, label %26

25:                                               ; preds = %21
  store i32 0, ptr %5, align 4
  br label %79

26:                                               ; preds = %21
  call void @llvm.lifetime.start.p0(i64 1, ptr %10) #11
  %27 = load ptr, ptr %7, align 8
  %28 = load i32, ptr %8, align 4
  %29 = call zeroext i8 @tvb_get_uint8(ptr noundef %27, i32 noundef %28)
  store i8 %29, ptr %10, align 1
  call void @llvm.lifetime.start.p0(i64 2, ptr %11) #11
  %30 = load ptr, ptr %7, align 8
  %31 = load i32, ptr %8, align 4
  %32 = add i32 %31, 1
  %33 = call zeroext i16 @tvb_get_uint16(ptr noundef %30, i32 noundef %32, i32 noundef 0)
  store i16 %33, ptr %11, align 2
  call void @llvm.lifetime.start.p0(i64 2, ptr %12) #11
  %34 = load ptr, ptr %7, align 8
  %35 = load i32, ptr %8, align 4
  %36 = add i32 %35, 1
  %37 = add i32 %36, 2
  %38 = call zeroext i16 @tvb_get_uint16(ptr noundef %34, i32 noundef %37, i32 noundef 0)
  store i16 %38, ptr %12, align 2
  %39 = load i8, ptr %10, align 1
  %40 = zext i8 %39 to i32
  switch i32 %40, label %42 [
    i32 21, label %41
    i32 22, label %41
    i32 23, label %41
    i32 24, label %41
  ]

41:                                               ; preds = %26, %26, %26, %26
  br label %43

42:                                               ; preds = %26
  store i32 0, ptr %5, align 4
  store i32 1, ptr %13, align 4
  br label %78

43:                                               ; preds = %41
  %44 = load i16, ptr %11, align 2
  %45 = zext i16 %44 to i32
  %46 = and i32 %45, 65280
  %47 = icmp ne i32 %46, 768
  br i1 %47, label %48, label %49

48:                                               ; preds = %43
  store i32 0, ptr %5, align 4
  store i32 1, ptr %13, align 4
  br label %78

49:                                               ; preds = %43
  %50 = load i16, ptr %12, align 2
  %51 = zext i16 %50 to i32
  %52 = icmp eq i32 %51, 0
  br i1 %52, label %57, label %53

53:                                               ; preds = %49
  %54 = load i16, ptr %12, align 2
  %55 = zext i16 %54 to i32
  %56 = icmp sge i32 %55, 18432
  br i1 %56, label %57, label %58

57:                                               ; preds = %53, %49
  store i32 0, ptr %5, align 4
  store i32 1, ptr %13, align 4
  br label %78

58:                                               ; preds = %53
  %59 = load ptr, ptr %9, align 8
  %60 = getelementptr inbounds nuw %struct.tcpcl_dissect_ctx_t, ptr %59, i32 0, i32 0
  %61 = load ptr, ptr %60, align 8
  %62 = getelementptr inbounds nuw %struct.tcpcl_conversation_t, ptr %61, i32 0, i32 4
  store i8 1, ptr %62, align 1
  %63 = call ptr @wmem_file_scope()
  %64 = load ptr, ptr %9, align 8
  %65 = getelementptr inbounds nuw %struct.tcpcl_dissect_ctx_t, ptr %64, i32 0, i32 1
  %66 = load ptr, ptr %65, align 8
  %67 = call ptr @tcpcl_frame_loc_clone(ptr noundef %63, ptr noundef %66)
  %68 = load ptr, ptr %9, align 8
  %69 = getelementptr inbounds nuw %struct.tcpcl_dissect_ctx_t, ptr %68, i32 0, i32 0
  %70 = load ptr, ptr %69, align 8
  %71 = getelementptr inbounds nuw %struct.tcpcl_conversation_t, ptr %70, i32 0, i32 5
  store ptr %67, ptr %71, align 8
  %72 = load ptr, ptr @tls_handle, align 8
  %73 = load ptr, ptr %6, align 8
  %74 = load ptr, ptr @tcpcl_handle, align 8
  %75 = call i32 @ssl_starttls_post_ack(ptr noundef %72, ptr noundef %73, ptr noundef %74)
  %76 = load ptr, ptr %7, align 8
  %77 = call i32 @tvb_reported_length(ptr noundef %76)
  store i32 %77, ptr %5, align 4
  store i32 1, ptr %13, align 4
  br label %78

78:                                               ; preds = %58, %57, %48, %42
  call void @llvm.lifetime.end.p0(i64 2, ptr %12) #11
  call void @llvm.lifetime.end.p0(i64 2, ptr %11) #11
  call void @llvm.lifetime.end.p0(i64 1, ptr %10) #11
  br label %79

79:                                               ; preds = %78, %25, %20
  %80 = load i32, ptr %5, align 4
  ret i32 %80
}