; Function Attrs: null_pointer_is_valid sspstrong uwtable
define internal i32 @chdr_missing_tls(ptr noundef %0, ptr noundef %1, i32 noundef %2, ptr noundef readonly captures(none) %3) #0 {
  %5 = load ptr, ptr %3, align 8
  %6 = getelementptr inbounds nuw i8, ptr %5, i64 32
  %7 = load ptr, ptr %6, align 8
  %.not = icmp eq ptr %7, null
  br i1 %.not, label %8, label %33

8:                                                ; preds = %4
  %9 = tail call i32 @tvb_captured_length(ptr noundef %1)
  %10 = icmp ult i32 %9, 5
  br i1 %10, label %33, label %11

11:                                               ; preds = %8
  %12 = tail call zeroext i8 @tvb_get_uint8(ptr noundef %1, i32 noundef %2)
  %13 = add i32 %2, 1
  %14 = tail call zeroext i16 @tvb_get_uint16(ptr noundef %1, i32 noundef %13, i32 noundef 0)
  %15 = add i32 %2, 3
  %16 = tail call zeroext i16 @tvb_get_uint16(ptr noundef %1, i32 noundef %15, i32 noundef 0)
  %17 = add i8 %12, -25
  %switch = icmp ult i8 %17, -4
  %18 = and i16 %14, -256
  %.not19 = icmp ne i16 %18, 768
  %or.cond20.not22 = select i1 %switch, i1 true, i1 %.not19
  %19 = add i16 %16, -18432
  %or.cond = icmp ult i16 %19, -18431
  %or.cond21 = select i1 %or.cond20.not22, i1 true, i1 %or.cond
  br i1 %or.cond21, label %33, label %20

20:                                               ; preds = %11
  %21 = load ptr, ptr %3, align 8
  %22 = getelementptr inbounds nuw i8, ptr %21, i64 25
  store i8 1, ptr %22, align 1
  %23 = tail call ptr @wmem_file_scope()
  %24 = getelementptr inbounds nuw i8, ptr %3, i64 8
  %25 = load ptr, ptr %24, align 8
  %26 = tail call noalias noundef dereferenceable_or_null(12) ptr @wmem_alloc(ptr noundef %23, i64 noundef 12) #12
  tail call void @llvm.memcpy.p0.p0.i64(ptr noundef align 4 dereferenceable(12) %26, ptr noundef readonly align 4 dereferenceable(12) %25, i64 12, i1 false)
  %27 = load ptr, ptr %3, align 8
  %28 = getelementptr inbounds nuw i8, ptr %27, i64 32
  store ptr %26, ptr %28, align 8
  %29 = load ptr, ptr @tls_handle, align 8
  %30 = load ptr, ptr @tcpcl_handle, align 8
  %31 = tail call i32 @ssl_starttls_post_ack(ptr noundef %29, ptr noundef %0, ptr noundef %30)
  %32 = tail call i32 @tvb_reported_length(ptr noundef %1)
  br label %33

33:                                               ; preds = %20, %11, %8, %4
  %.0 = phi i32 [ 0, %4 ], [ 0, %8 ], [ %32, %20 ], [ 0, %11 ]
  ret i32 %.0
}